target datalayout = "e-m:e-p270:32:32-p271:32:32-p272:64:64-i64:64-i128:128-f80:128-n8:16:32:64-S128"
target triple = "x86_64-pc-linux-gnu"

%struct.mbedtls_asn1_buf = type { i32, i64, ptr }
%struct.mbedtls_asn1_named_data = type { %struct.mbedtls_asn1_buf, %struct.mbedtls_asn1_buf, ptr, i8 }

; Function Attrs: nounwind uwtable
define hidden void @mbedtls_asn1_free_named_data_list_shallow(ptr noundef %0) #0 {
  %2 = alloca ptr, align 8
  %3 = alloca ptr, align 8
  store ptr %0, ptr %2, align 8, !tbaa !51
  call void @llvm.lifetime.start.p0(i64 8, ptr %3) #7
  br label %4

4:                                                ; preds = %13, %1
  %5 = load ptr, ptr %2, align 8, !tbaa !51
  %6 = icmp ne ptr %5, null
  br i1 %6, label %8, label %7

7:                                                ; preds = %4
  call void @llvm.lifetime.end.p0(i64 8, ptr %3) #7
  br label %15

8:                                                ; preds = %4
  %9 = load ptr, ptr %2, align 8, !tbaa !51
  %10 = getelementptr inbounds nuw %struct.mbedtls_asn1_named_data, ptr %9, i32 0, i32 2
  %11 = load ptr, ptr %10, align 8, !tbaa !58
  store ptr %11, ptr %3, align 8, !tbaa !51
  %12 = load ptr, ptr %2, align 8, !tbaa !51
  call void @free(ptr noundef %12) #7
  br label %13

13:                                               ; preds = %8
  %14 = load ptr, ptr %3, align 8, !tbaa !51
  store ptr %14, ptr %2, align 8, !tbaa !51
  br label %4, !llvm.loop !60

15:                                               ; preds = %7
  ret void
}